target datalayout = "e-m:e-p270:32:32-p271:32:32-p272:64:64-i64:64-i128:128-f80:128-n8:16:32:64-S128"
target triple = "x86_64-pc-linux-gnu"

%"class.gmx::DomDecHelper" = type { %"class.gmx::INeighborSearchSignallerClient", i64, i8, i32, %"class.std::vector", ptr, ptr, ptr, ptr, ptr, ptr, ptr, ptr, ptr, ptr, ptr, ptr, ptr, ptr, ptr }
%"class.gmx::INeighborSearchSignallerClient" = type { ptr }
%"class.std::vector" = type { %"struct.std::_Vector_base" }
%"struct.std::_Vector_base" = type { %"struct.std::_Vector_base<std::function<void ()>, std::allocator<std::function<void ()>>>::_Vector_impl" }
%"struct.std::_Vector_base<std::function<void ()>, std::allocator<std::function<void ()>>>::_Vector_impl" = type { %"struct.std::_Vector_base<std::function<void ()>, std::allocator<std::function<void ()>>>::_Vector_impl_data" }
%"struct.std::_Vector_base<std::function<void ()>, std::allocator<std::function<void ()>>>::_Vector_impl_data" = type { ptr, ptr, ptr }
%struct.t_inputrec = type { i32, i32, i64, i32, i64, i32, i32, i32, i32, i32, i32, i32, i32, i32, i32, i32, double, double, i8, %"class.std::vector.19", float, float, float, i32, i32, i32, i32, float, float, i32, float, i32, i32, i8, i8, i32, float, i32, i32, i8, %struct.PressureCouplingOptions, %"class.std::vector.24", %"class.std::vector.24", i32, float, float, float, float, i32, i32, float, float, float, float, i8, i32, i32, float, float, i32, float, float, i32, %"class.std::unique_ptr.29", i8, %"class.std::unique_ptr.37", i8, %"class.std::unique_ptr.45", i32, float, i32, i8, i32, float, float, float, i32, float, float, i32, float, i32, i32, i32, i32, float, i32, i8, float, i64, i32, i32, float, [2 x i32], [2 x float], float, i8, %"class.std::unique_ptr.53", i8, %"class.std::unique_ptr.61", i8, %"class.std::unique_ptr.69", i32, ptr, i8, ptr, float, [3 x [3 x float]], i32, i32, i32, i32, float, float, float, float, %struct.t_grpopts, i8, i8, i8, i8, ptr, %"class.std::unique_ptr.77" }
%"class.std::vector.19" = type { %"struct.std::_Vector_base.20" }
%"struct.std::_Vector_base.20" = type { %"struct.std::_Vector_base<gmx::MtsLevel, std::allocator<gmx::MtsLevel>>::_Vector_impl" }
%"struct.std::_Vector_base<gmx::MtsLevel, std::allocator<gmx::MtsLevel>>::_Vector_impl" = type { %"struct.std::_Vector_base<gmx::MtsLevel, std::allocator<gmx::MtsLevel>>::_Vector_impl_data" }
%"struct.std::_Vector_base<gmx::MtsLevel, std::allocator<gmx::MtsLevel>>::_Vector_impl_data" = type { ptr, ptr, ptr }
%struct.PressureCouplingOptions = type { i32, i32, i32, float, [3 x [3 x float]], [3 x [3 x float]], i32 }
%"class.std::vector.24" = type { %"struct.std::_Vector_base.25" }
%"struct.std::_Vector_base.25" = type { %"struct.std::_Vector_base<gmx::BasicVector<float>, std::allocator<gmx::BasicVector<float>>>::_Vector_impl" }
%"struct.std::_Vector_base<gmx::BasicVector<float>, std::allocator<gmx::BasicVector<float>>>::_Vector_impl" = type { %"struct.std::_Vector_base<gmx::BasicVector<float>, std::allocator<gmx::BasicVector<float>>>::_Vector_impl_data" }
%"struct.std::_Vector_base<gmx::BasicVector<float>, std::allocator<gmx::BasicVector<float>>>::_Vector_impl_data" = type { ptr, ptr, ptr }
%"class.std::unique_ptr.29" = type { %"struct.std::__uniq_ptr_data.30" }
%"struct.std::__uniq_ptr_data.30" = type { %"class.std::__uniq_ptr_impl.31" }
%"class.std::__uniq_ptr_impl.31" = type { %"class.std::tuple.32" }
%"class.std::tuple.32" = type { %"struct.std::_Tuple_impl.33" }
%"struct.std::_Tuple_impl.33" = type { %"struct.std::_Head_base.36" }
%"struct.std::_Head_base.36" = type { ptr }
%"class.std::unique_ptr.37" = type { %"struct.std::__uniq_ptr_data.38" }
%"struct.std::__uniq_ptr_data.38" = type { %"class.std::__uniq_ptr_impl.39" }
%"class.std::__uniq_ptr_impl.39" = type { %"class.std::tuple.40" }
%"class.std::tuple.40" = type { %"struct.std::_Tuple_impl.41" }
%"struct.std::_Tuple_impl.41" = type { %"struct.std::_Head_base.44" }
%"struct.std::_Head_base.44" = type { ptr }
%"class.std::unique_ptr.45" = type { %"struct.std::__uniq_ptr_data.46" }
%"struct.std::__uniq_ptr_data.46" = type { %"class.std::__uniq_ptr_impl.47" }
%"class.std::__uniq_ptr_impl.47" = type { %"class.std::tuple.48" }
%"class.std::tuple.48" = type { %"struct.std::_Tuple_impl.49" }
%"struct.std::_Tuple_impl.49" = type { %"struct.std::_Head_base.52" }
%"struct.std::_Head_base.52" = type { ptr }
%"class.std::unique_ptr.53" = type { %"struct.std::__uniq_ptr_data.54" }
%"struct.std::__uniq_ptr_data.54" = type { %"class.std::__uniq_ptr_impl.55" }
%"class.std::__uniq_ptr_impl.55" = type { %"class.std::tuple.56" }
%"class.std::tuple.56" = type { %"struct.std::_Tuple_impl.57" }
%"struct.std::_Tuple_impl.57" = type { %"struct.std::_Head_base.60" }
%"struct.std::_Head_base.60" = type { ptr }
%"class.std::unique_ptr.61" = type { %"struct.std::__uniq_ptr_data.62" }
%"struct.std::__uniq_ptr_data.62" = type { %"class.std::__uniq_ptr_impl.63" }
%"class.std::__uniq_ptr_impl.63" = type { %"class.std::tuple.64" }
%"class.std::tuple.64" = type { %"struct.std::_Tuple_impl.65" }
%"struct.std::_Tuple_impl.65" = type { %"struct.std::_Head_base.68" }
%"struct.std::_Head_base.68" = type { ptr }
%"class.std::unique_ptr.69" = type { %"struct.std::__uniq_ptr_data.70" }
%"struct.std::__uniq_ptr_data.70" = type { %"class.std::__uniq_ptr_impl.71" }
%"class.std::__uniq_ptr_impl.71" = type { %"class.std::tuple.72" }
%"class.std::tuple.72" = type { %"struct.std::_Tuple_impl.73" }
%"struct.std::_Tuple_impl.73" = type { %"struct.std::_Head_base.76" }
%"struct.std::_Head_base.76" = type { ptr }
%struct.t_grpopts = type <{ i32, i32, i32, i32, i32, [4 x i8], ptr, ptr, ptr, ptr, ptr, ptr, ptr, ptr, ptr, ptr, i32, [4 x i8] }>
%"class.std::unique_ptr.77" = type { %"struct.std::__uniq_ptr_data.78" }
%"struct.std::__uniq_ptr_data.78" = type { %"class.std::__uniq_ptr_impl.79" }
%"class.std::__uniq_ptr_impl.79" = type { %"class.std::tuple.80" }
%"class.std::tuple.80" = type { %"struct.std::_Tuple_impl.81" }
%"struct.std::_Tuple_impl.81" = type { %"struct.std::_Head_base.84" }
%"struct.std::_Head_base.84" = type { ptr }
%class.t_state = type { i32, i32, i32, i32, i32, i32, %"struct.gmx::EnumerationArray", [3 x [3 x float]], [3 x [3 x float]], [3 x [3 x float]], [3 x [3 x float]], [3 x [3 x float]], [3 x [3 x float]], %"class.std::vector.85", %"class.std::vector.85", %"class.std::vector.85", %"class.std::vector.85", %"class.std::vector.85", double, float, float, %"class.gmx::PaddedVector", %"class.gmx::PaddedVector", %"class.gmx::PaddedVector", %class.ekinstate_t, %class.history_t, ptr, %"class.std::shared_ptr", i32, i32, %"class.std::vector.4", %"class.std::vector.85" }
%"struct.gmx::EnumerationArray" = type { [7 x float] }
%"class.gmx::PaddedVector" = type { %"class.std::vector.2", %"class.__gnu_cxx::__normal_iterator" }
%"class.std::vector.2" = type { %"struct.std::_Vector_base.3" }
%"struct.std::_Vector_base.3" = type { %"struct.std::_Vector_base<gmx::BasicVector<float>, gmx::Allocator<gmx::BasicVector<float>, gmx::HostAllocationPolicy>>::_Vector_impl" }
%"struct.std::_Vector_base<gmx::BasicVector<float>, gmx::Allocator<gmx::BasicVector<float>, gmx::HostAllocationPolicy>>::_Vector_impl" = type { %"class.gmx::Allocator.base", %"struct.std::_Vector_base<gmx::BasicVector<float>, gmx::Allocator<gmx::BasicVector<float>, gmx::HostAllocationPolicy>>::_Vector_impl_data" }
%"class.gmx::Allocator.base" = type { %"class.gmx::HostAllocationPolicy.base" }
%"class.gmx::HostAllocationPolicy.base" = type <{ i32, i8 }>
%"struct.std::_Vector_base<gmx::BasicVector<float>, gmx::Allocator<gmx::BasicVector<float>, gmx::HostAllocationPolicy>>::_Vector_impl_data" = type { ptr, ptr, ptr }
%"class.__gnu_cxx::__normal_iterator" = type { ptr }
%class.ekinstate_t = type <{ i8, [3 x i8], i32, ptr, ptr, ptr, [3 x [3 x float]], [4 x i8], %"class.std::vector.85", %"class.std::vector.85", %"class.std::vector.85", float, float, i8, [7 x i8] }>
%class.history_t = type { float, %"class.std::vector.90", float, %"class.std::vector.90" }
%"class.std::vector.90" = type { %"struct.std::_Vector_base.91" }
%"struct.std::_Vector_base.91" = type { %"struct.std::_Vector_base<float, std::allocator<float>>::_Vector_impl" }
%"struct.std::_Vector_base<float, std::allocator<float>>::_Vector_impl" = type { %"struct.std::_Vector_base<float, std::allocator<float>>::_Vector_impl_data" }
%"struct.std::_Vector_base<float, std::allocator<float>>::_Vector_impl_data" = type { ptr, ptr, ptr }
%"class.std::shared_ptr" = type { %"class.std::__shared_ptr" }
%"class.std::__shared_ptr" = type { ptr, %"class.std::__shared_count" }
%"class.std::__shared_count" = type { ptr }
%"class.std::vector.4" = type { %"struct.std::_Vector_base.5" }
%"struct.std::_Vector_base.5" = type { %"struct.std::_Vector_base<int, std::allocator<int>>::_Vector_impl" }
%"struct.std::_Vector_base<int, std::allocator<int>>::_Vector_impl" = type { %"struct.std::_Vector_base<int, std::allocator<int>>::_Vector_impl_data" }
%"struct.std::_Vector_base<int, std::allocator<int>>::_Vector_impl_data" = type { ptr, ptr, ptr }
%"class.std::vector.85" = type { %"struct.std::_Vector_base.86" }
%"struct.std::_Vector_base.86" = type { %"struct.std::_Vector_base<double, std::allocator<double>>::_Vector_impl" }
%"struct.std::_Vector_base<double, std::allocator<double>>::_Vector_impl" = type { %"struct.std::_Vector_base<double, std::allocator<double>>::_Vector_impl_data" }
%"struct.std::_Vector_base<double, std::allocator<double>>::_Vector_impl_data" = type { ptr, ptr, ptr }
%struct.t_commrec = type <{ i8, [3 x i8], i32, i32, i32, i32, [4 x i8], ptr, ptr, i32, [4 x i8], ptr, i32, i32, %struct.gmx_nodecomm_t, %"class.std::unique_ptr.95", %"class.std::unique_ptr.103", ptr, ptr, i32, [4 x i8] }>
%struct.gmx_nodecomm_t = type { i8, ptr, i32, ptr }
%"class.std::unique_ptr.95" = type { %"struct.std::__uniq_ptr_data.96" }
%"struct.std::__uniq_ptr_data.96" = type { %"class.std::__uniq_ptr_impl.97" }
%"class.std::__uniq_ptr_impl.97" = type { %"class.std::tuple.98" }
%"class.std::tuple.98" = type { %"struct.std::_Tuple_impl.99" }
%"struct.std::_Tuple_impl.99" = type { %"struct.std::_Head_base.102" }
%"struct.std::_Head_base.102" = type { ptr }
%"class.std::unique_ptr.103" = type { %"struct.std::__uniq_ptr_data.104" }
%"struct.std::__uniq_ptr_data.104" = type { %"class.std::__uniq_ptr_impl.105" }
%"class.std::__uniq_ptr_impl.105" = type { %"class.std::tuple.106" }
%"class.std::tuple.106" = type { %"struct.std::_Tuple_impl.107" }
%"struct.std::_Tuple_impl.107" = type { %"struct.std::_Head_base.110" }
%"struct.std::_Head_base.110" = type { ptr }

; Function Attrs: mustprogress uwtable
define void @_ZN3gmx12DomDecHelper3runEld(ptr noundef nonnull align 8 dereferenceable(168) %0, i64 noundef %1, double noundef %2) #3 align 2 {
  %4 = alloca ptr, align 8
  %5 = alloca i64, align 8
  %6 = alloca double, align 8
  %7 = alloca ptr, align 8
  %8 = alloca ptr, align 8
  %9 = alloca i8, align 1
  %10 = alloca i8, align 1
  store ptr %0, ptr %4, align 8, !tbaa !4
  store i64 %1, ptr %5, align 8, !tbaa !233
  store double %2, ptr %6, align 8, !tbaa !234
  %11 = load ptr, ptr %4, align 8
  %12 = load i64, ptr %5, align 8, !tbaa !233
  %13 = getelementptr inbounds nuw %"class.gmx::DomDecHelper", ptr %11, i32 0, i32 1
  %14 = load i64, ptr %13, align 8, !tbaa !49
  %15 = icmp ne i64 %12, %14
  br i1 %15, label %29, label %16

16:                                               ; preds = %3
  %17 = load i64, ptr %5, align 8, !tbaa !233
  %18 = getelementptr inbounds nuw %"class.gmx::DomDecHelper", ptr %11, i32 0, i32 11
  %19 = load ptr, ptr %18, align 8, !tbaa !67
  %20 = getelementptr inbounds nuw %struct.t_inputrec, ptr %19, i32 0, i32 4
  %21 = load i64, ptr %20, align 8, !tbaa !220
  %22 = icmp eq i64 %17, %21
  br i1 %22, label %23, label %30

23:                                               ; preds = %16
  %24 = getelementptr inbounds nuw %"class.gmx::DomDecHelper", ptr %11, i32 0, i32 11
  %25 = load ptr, ptr %24, align 8, !tbaa !67
  %26 = getelementptr inbounds nuw %struct.t_inputrec, ptr %25, i32 0, i32 34
  %27 = load i8, ptr %26, align 1, !tbaa !235, !range !58, !noundef !59
  %28 = trunc i8 %27 to i1
  br i1 %28, label %29, label %30

29:                                               ; preds = %23, %3
  br label %91

30:                                               ; preds = %23, %16
  call void @llvm.lifetime.start.p0(i64 8, ptr %7) #18
  %31 = getelementptr inbounds nuw %"class.gmx::DomDecHelper", ptr %11, i32 0, i32 5
  %32 = load ptr, ptr %31, align 8, !tbaa !62
  %33 = call noundef ptr @_ZN3gmx19StatePropagatorData10localStateEv(ptr noundef nonnull align 8 dereferenceable(632) %32)
  store ptr %33, ptr %7, align 8, !tbaa !90
  call void @llvm.lifetime.start.p0(i64 8, ptr %8) #18
  %34 = getelementptr inbounds nuw %"class.gmx::DomDecHelper", ptr %11, i32 0, i32 5
  %35 = load ptr, ptr %34, align 8, !tbaa !62
  %36 = call noundef ptr @_ZN3gmx19StatePropagatorData11globalStateEv(ptr noundef nonnull align 8 dereferenceable(632) %35)
  store ptr %36, ptr %8, align 8, !tbaa !90
  call void @llvm.lifetime.start.p0(i64 1, ptr %9) #18
  %37 = getelementptr inbounds nuw %"class.gmx::DomDecHelper", ptr %11, i32 0, i32 2
  %38 = load i8, ptr %37, align 8, !tbaa !60, !range !58, !noundef !59
  %39 = trunc i8 %38 to i1
  br i1 %39, label %40, label %56

40:                                               ; preds = %30
  %41 = load i64, ptr %5, align 8, !tbaa !233
  %42 = getelementptr inbounds nuw %"class.gmx::DomDecHelper", ptr %11, i32 0, i32 3
  %43 = load i32, ptr %42, align 4, !tbaa !61
  %44 = sext i32 %43 to i64
  %45 = srem i64 %41, %44
  %46 = icmp eq i64 %45, 0
  br i1 %46, label %54, label %47

47:                                               ; preds = %40
  %48 = load i64, ptr %5, align 8, !tbaa !233
  %49 = getelementptr inbounds nuw %"class.gmx::DomDecHelper", ptr %11, i32 0, i32 11
  %50 = load ptr, ptr %49, align 8, !tbaa !67
  %51 = getelementptr inbounds nuw %struct.t_inputrec, ptr %50, i32 0, i32 4
  %52 = load i64, ptr %51, align 8, !tbaa !220
  %53 = icmp eq i64 %48, %52
  br label %54

54:                                               ; preds = %47, %40
  %55 = phi i1 [ true, %40 ], [ %53, %47 ]
  br label %56

56:                                               ; preds = %54, %30
  %57 = phi i1 [ false, %30 ], [ %55, %54 ]
  %58 = zext i1 %57 to i8
  store i8 %58, ptr %9, align 1, !tbaa !11
  call void @llvm.lifetime.start.p0(i64 1, ptr %10) #18
  store i8 0, ptr %10, align 1, !tbaa !11
  %59 = getelementptr inbounds nuw %"class.gmx::DomDecHelper", ptr %11, i32 0, i32 11
  %60 = load ptr, ptr %59, align 8, !tbaa !67
  %61 = call noundef zeroext i1 @_Z18inputrecDynamicBoxPK10t_inputrec(ptr noundef %60)
  br i1 %61, label %62, label %72

62:                                               ; preds = %56
  %63 = getelementptr inbounds nuw %"class.gmx::DomDecHelper", ptr %11, i32 0, i32 7
  %64 = load ptr, ptr %63, align 8, !tbaa !64
  %65 = load i64, ptr %5, align 8, !tbaa !233
  %66 = load ptr, ptr %7, align 8, !tbaa !90
  %67 = getelementptr inbounds nuw %class.t_state, ptr %66, i32 0, i32 7
  %68 = getelementptr inbounds [3 x [3 x float]], ptr %67, i64 0, i64 0
  %69 = call noundef zeroext i1 @_Z11correct_boxP8_IO_FILElPA3_f(ptr noundef %64, i64 noundef %65, ptr noundef %68)
  br i1 %69, label %70, label %71

70:                                               ; preds = %62
  store i8 1, ptr %10, align 1, !tbaa !11
  br label %71

71:                                               ; preds = %70, %62
  br label %72

72:                                               ; preds = %71, %56
  %73 = load i8, ptr %10, align 1, !tbaa !11, !range !58, !noundef !59
  %74 = trunc i8 %73 to i1
  br i1 %74, label %75, label %82

75:                                               ; preds = %72
  %76 = getelementptr inbounds nuw %"class.gmx::DomDecHelper", ptr %11, i32 0, i32 8
  %77 = load ptr, ptr %76, align 8, !tbaa !65
  %78 = getelementptr inbounds nuw %struct.t_commrec, ptr %77, i32 0, i32 17
  %79 = load ptr, ptr %78, align 8, !tbaa !236
  %80 = load ptr, ptr %7, align 8, !tbaa !90
  %81 = load ptr, ptr %8, align 8, !tbaa !90
  call void @_Z16dd_collect_stateP12gmx_domdec_tPK7t_statePS1_(ptr noundef %79, ptr noundef %80, ptr noundef %81)
  br label %82

82:                                               ; preds = %75, %72
  %83 = load i8, ptr %9, align 1, !tbaa !11, !range !58, !noundef !59
  %84 = trunc i8 %83 to i1
  %85 = load i8, ptr %10, align 1, !tbaa !11, !range !58, !noundef !59
  %86 = trunc i8 %85 to i1
  %87 = getelementptr inbounds nuw %"class.gmx::DomDecHelper", ptr %11, i32 0, i32 15
  %88 = load ptr, ptr %87, align 8, !tbaa !70
  %89 = load ptr, ptr %7, align 8, !tbaa !90
  %90 = load ptr, ptr %8, align 8, !tbaa !90
  call void @_ZN3gmx12DomDecHelper15partitionSystemEbbP13gmx_wallcycleP7t_stateS4_(ptr noundef nonnull align 8 dereferenceable(168) %11, i1 noundef zeroext %84, i1 noundef zeroext %86, ptr noundef %88, ptr noundef %89, ptr noundef %90)
  call void @llvm.lifetime.end.p0(i64 1, ptr %10) #18
  call void @llvm.lifetime.end.p0(i64 1, ptr %9) #18
  call void @llvm.lifetime.end.p0(i64 8, ptr %8) #18
  call void @llvm.lifetime.end.p0(i64 8, ptr %7) #18
  br label %91

91:                                               ; preds = %82, %29
  ret void
}