; Function Attrs: mustprogress uwtable
define void @_ZN3gmx12DomDecHelper3runEld(ptr noundef nonnull readonly align 8 captures(none) dereferenceable(168) %0, i64 noundef %1, double noundef %2) local_unnamed_addr #3 align 2 {
  %4 = getelementptr inbounds nuw i8, ptr %0, i64 8
  %5 = load i64, ptr %4, align 8, !tbaa !25
  %.not = icmp eq i64 %1, %5
  br i1 %.not, label %6, label %51

6:                                                ; preds = %3
  %7 = getelementptr inbounds nuw i8, ptr %0, i64 96
  %8 = load ptr, ptr %7, align 8, !tbaa !56
  %9 = getelementptr inbounds nuw i8, ptr %8, i64 24
  %10 = load i64, ptr %9, align 8, !tbaa !191
  %11 = icmp eq i64 %1, %10
  br i1 %11, label %12, label %16

12:                                               ; preds = %6
  %13 = getelementptr inbounds nuw i8, ptr %8, i64 181
  %14 = load i8, ptr %13, align 1, !tbaa !206, !range !207, !noundef !208
  %15 = trunc nuw i8 %14 to i1
  br i1 %15, label %51, label %16

16:                                               ; preds = %12, %6
  %17 = getelementptr inbounds nuw i8, ptr %0, i64 48
  %18 = load ptr, ptr %17, align 8, !tbaa !50
  %19 = tail call noundef ptr @_ZN3gmx19StatePropagatorData10localStateEv(ptr noundef nonnull align 8 dereferenceable(632) %18)
  %20 = load ptr, ptr %17, align 8, !tbaa !50
  %21 = tail call noundef ptr @_ZN3gmx19StatePropagatorData11globalStateEv(ptr noundef nonnull align 8 dereferenceable(632) %20)
  %22 = getelementptr inbounds nuw i8, ptr %0, i64 16
  %23 = load i8, ptr %22, align 8, !tbaa !48, !range !207, !noundef !208
  %24 = trunc nuw i8 %23 to i1
  br i1 %24, label %25, label %._crit_edge

._crit_edge:                                      ; preds = %16
  %.pre = load ptr, ptr %7, align 8, !tbaa !56
  br label %35

25:                                               ; preds = %16
  %26 = getelementptr inbounds nuw i8, ptr %0, i64 20
  %27 = load i32, ptr %26, align 4, !tbaa !49
  %28 = sext i32 %27 to i64
  %29 = srem i64 %1, %28
  %30 = icmp eq i64 %29, 0
  %.pre16 = load ptr, ptr %7, align 8, !tbaa !56
  br i1 %30, label %35, label %31

31:                                               ; preds = %25
  %32 = getelementptr inbounds nuw i8, ptr %.pre16, i64 24
  %33 = load i64, ptr %32, align 8, !tbaa !191
  %34 = icmp eq i64 %1, %33
  br label %35

35:                                               ; preds = %._crit_edge, %25, %31
  %36 = phi ptr [ %.pre, %._crit_edge ], [ %.pre16, %25 ], [ %.pre16, %31 ]
  %37 = phi i1 [ false, %._crit_edge ], [ true, %25 ], [ %34, %31 ]
  %38 = tail call noundef zeroext i1 @_Z18inputrecDynamicBoxPK10t_inputrec(ptr noundef %36)
  br i1 %38, label %39, label %.thread

39:                                               ; preds = %35
  %40 = getelementptr inbounds nuw i8, ptr %0, i64 64
  %41 = load ptr, ptr %40, align 8, !tbaa !52
  %42 = getelementptr inbounds nuw i8, ptr %19, i64 52
  %43 = tail call noundef zeroext i1 @_Z11correct_boxP8_IO_FILElPA3_f(ptr noundef %41, i64 noundef %1, ptr noundef nonnull %42)
  br i1 %43, label %44, label %.thread

44:                                               ; preds = %39
  %45 = getelementptr inbounds nuw i8, ptr %0, i64 72
  %46 = load ptr, ptr %45, align 8, !tbaa !53
  %47 = getelementptr inbounds nuw i8, ptr %46, i64 112
  %48 = load ptr, ptr %47, align 8, !tbaa !209
  tail call void @_Z16dd_collect_stateP12gmx_domdec_tPK7t_statePS1_(ptr noundef %48, ptr noundef nonnull %19, ptr noundef %21)
  br label %.thread

.thread:                                          ; preds = %35, %44, %39
  %.015 = phi i1 [ true, %44 ], [ false, %39 ], [ false, %35 ]
  %49 = getelementptr inbounds nuw i8, ptr %0, i64 128
  %50 = load ptr, ptr %49, align 8, !tbaa !60
  tail call void @_ZN3gmx12DomDecHelper15partitionSystemEbbP13gmx_wallcycleP7t_stateS4_(ptr noundef nonnull align 8 dereferenceable(168) %0, i1 noundef zeroext %37, i1 noundef zeroext %.015, ptr noundef %50, ptr noundef %19, ptr noundef %21)
  br label %51

51:                                               ; preds = %3, %12, %.thread
  ret void
}